; Function Attrs: nounwind uwtable
define noalias noundef ptr @Ga2_ManCnfCompute(i32 noundef %0, i32 noundef %1, ptr noundef %2) local_unnamed_addr #4 {
  %4 = alloca i32, align 4
  store i32 %0, ptr %4, align 4
  %5 = call i32 @Kit_TruthIsop(ptr noundef nonnull %4, i32 noundef %1, ptr noundef %2, i32 noundef 0) #28
  %6 = call noalias dereferenceable_or_null(16) ptr @malloc(i64 noundef 16) #27
  %7 = getelementptr inbounds nuw i8, ptr %2, i64 4
  %8 = load i32, ptr %7, align 4
  %9 = getelementptr inbounds nuw i8, ptr %6, i64 4
  store i32 %8, ptr %9, align 4
  store i32 %8, ptr %6, align 8
  %.not.i = icmp eq i32 %8, 0
  br i1 %.not.i, label %Vec_IntDup.exit, label %10

10:                                               ; preds = %3
  %11 = sext i32 %8 to i64
  %12 = shl nsw i64 %11, 2
  %13 = call noalias ptr @malloc(i64 noundef %12) #27
  br label %Vec_IntDup.exit

Vec_IntDup.exit:                                  ; preds = %3, %10
  %.pre-phi12.i = phi i64 [ %12, %10 ], [ 0, %3 ]
  %14 = phi ptr [ %13, %10 ], [ null, %3 ]
  %15 = getelementptr inbounds nuw i8, ptr %6, i64 8
  store ptr %14, ptr %15, align 8
  %16 = getelementptr inbounds nuw i8, ptr %2, i64 8
  %17 = load ptr, ptr %16, align 8
  call void @llvm.memcpy.p0.p0.i64(ptr align 4 %14, ptr align 4 %17, i64 %.pre-phi12.i, i1 false)
  ret ptr %6
}